Certificate:
    Data:
        Version: 3 (0x2)
        Serial Number:
            b4:d6:63:8c:00:c7:f2:8c
    Signature Algorithm: sha256WithRSAEncryption
        Issuer: C=US, ST=North Carolina, L=Raleigh, O=Katello, OU=SomeOrgUnit, CN=satellite.home.nicknach.net
        Validity
            Not Before: Oct 24 19:20:19 2018 GMT
            Not After : Jan 17 19:20:19 2038 GMT
        Subject: C=US, ST=North Carolina, L=Raleigh, O=Katello, OU=SomeOrgUnit, CN=satellite.home.nicknach.net
        Subject Public Key Info:
            Public Key Algorithm: rsaEncryption
                Public-Key: (2048 bit)
                Modulus:
                    00:c4:3d:49:dc:81:14:fc:1c:d3:c5:81:7e:d1:79:
                    25:21:4b:a6:c1:f1:3c:f2:10:59:26:0f:fd:eb:44:
                    f9:2a:0d:9a:ac:9f:aa:c5:15:d1:f7:d7:1d:04:2c:
                    07:0d:ce:6d:8d:fd:33:c8:5f:4c:67:c5:22:88:d5:
                    21:7c:8a:e1:c9:b3:9e:e3:0a:1a:e7:95:21:22:ba:
                    81:34:86:d2:71:b0:c2:64:bc:d9:42:d7:3f:96:bf:
                    d1:a0:f6:7c:90:bb:58:a1:95:bb:8f:c2:32:8e:8a:
                    16:a0:49:5c:2a:6e:75:1e:8e:be:62:a8:af:13:93:
                    63:e2:b1:6a:9d:a6:fe:d0:49:27:c1:c5:e7:50:78:
                    a8:45:ab:fb:2d:ed:94:e2:00:9f:83:f4:82:1d:ef:
                    dd:69:7e:a7:48:c0:38:06:35:92:57:cb:17:08:de:
                    85:15:b3:0f:5a:d7:1f:ba:c5:37:2e:6c:4a:19:f4:
                    78:f1:86:9d:4e:4c:2d:fd:03:c3:d1:53:e2:05:ea:
                    46:87:07:86:82:4d:2b:f7:93:8e:59:43:1f:d7:3c:
                    09:33:40:0d:af:34:7d:c7:a4:02:00:8f:9d:eb:a0:
                    b8:f4:da:e6:f3:0e:23:e2:75:c1:04:4f:b1:e0:f7:
                    2e:e8:6e:84:b3:5e:41:3b:0b:9a:83:1a:dc:36:76:
                    ae:e1
                Exponent: 65537 (0x10001)
        X509v3 extensions:
            X509v3 Basic Constraints: 
                CA:TRUE
            X509v3 Key Usage: 
                Digital Signature, Key Encipherment, Certificate Sign, CRL Sign
            X509v3 Extended Key Usage: 
                TLS Web Server Authentication, TLS Web Client Authentication
            Netscape Cert Type: 
                SSL Server, SSL CA
            Netscape Comment: 
                Katello SSL Tool Generated Certificate
            X509v3 Subject Key Identifier: 
                57:F0:3E:99:72:FF:4A:60:89:63:85:5F:8B:A7:B1:33:42:E4:10:9B
            X509v3 Authority Key Identifier: 
                keyid:57:F0:3E:99:72:FF:4A:60:89:63:85:5F:8B:A7:B1:33:42:E4:10:9B
                DirName:/C=US/ST=North Carolina/L=Raleigh/O=Katello/OU=SomeOrgUnit/CN=satellite.home.nicknach.net
                serial:B4:D6:63:8C:00:C7:F2:8C

    Signature Algorithm: sha256WithRSAEncryption
         8e:48:80:de:b0:4d:21:91:9b:aa:c3:42:c9:ca:f8:dd:05:6f:
         a8:bc:d2:43:2d:ec:e0:99:41:22:c2:99:8c:18:c3:8f:6e:37:
         6e:f7:84:a1:dd:9b:5d:7d:74:82:d4:e7:5b:b6:11:cc:01:24:
         26:fc:5d:98:4f:26:86:a6:38:f7:56:f5:ed:11:c8:01:7f:d6:
         07:51:29:06:67:fb:f5:81:7d:dc:78:15:2b:62:c1:cc:9c:36:
         79:cb:5d:c0:3a:f0:63:57:d2:b8:8f:2f:11:b1:7d:f0:16:b4:
         c8:99:05:99:95:86:c1:b8:ae:b1:4d:72:29:13:70:1c:91:96:
         5c:98:37:b3:19:8b:b3:ff:dd:b9:0f:a9:53:f7:b0:fd:4b:1b:
         6d:c0:32:45:b3:3c:00:58:f3:76:6a:6b:02:56:cc:bf:e9:4f:
         66:43:8d:a5:d6:a0:28:c7:df:9d:20:46:45:57:c7:cc:44:32:
         c7:fa:5f:c7:17:d7:fb:40:f3:8f:aa:f8:d5:58:eb:1c:bd:1b:
         d3:05:0b:5b:19:c0:d7:b2:6f:8f:5d:b4:bc:fb:b8:05:ff:e7:
         0b:35:f4:e2:9a:da:f3:cd:9f:c0:35:62:b4:bd:29:61:18:cc:
         99:1a:cc:79:1d:82:be:3a:b8:ed:4e:9b:14:1a:23:49:8d:d4:
         c7:c2:23:86
-----BEGIN CERTIFICATE-----
MIIE+DCCA+CgAwIBAgIJALTWY4wAx/KMMA0GCSqGSIb3DQEBCwUAMIGGMQswCQYD
VQQGEwJVUzEXMBUGA1UECAwOTm9ydGggQ2Fyb2xpbmExEDAOBgNVBAcMB1JhbGVp
Z2gxEDAOBgNVBAoMB0thdGVsbG8xFDASBgNVBAsMC1NvbWVPcmdVbml0MSQwIgYD
VQQDDBtzYXRlbGxpdGUuaG9tZS5uaWNrbmFjaC5uZXQwHhcNMTgxMDI0MTkyMDE5
WhcNMzgwMTE3MTkyMDE5WjCBhjELMAkGA1UEBhMCVVMxFzAVBgNVBAgMDk5vcnRo
IENhcm9saW5hMRAwDgYDVQQHDAdSYWxlaWdoMRAwDgYDVQQKDAdLYXRlbGxvMRQw
EgYDVQQLDAtTb21lT3JnVW5pdDEkMCIGA1UEAwwbc2F0ZWxsaXRlLmhvbWUubmlj
a25hY2gubmV0MIIBIjANBgkqhkiG9w0BAQEFAAOCAQ8AMIIBCgKCAQEAxD1J3IEU
/BzTxYF+0XklIUumwfE88hBZJg/960T5Kg2arJ+qxRXR99cdBCwHDc5tjf0zyF9M
Z8UiiNUhfIrhybOe4woa55UhIrqBNIbScbDCZLzZQtc/lr/RoPZ8kLtYoZW7j8Iy
jooWoElcKm51Ho6+YqivE5Nj4rFqnab+0EknwcXnUHioRav7Le2U4gCfg/SCHe/d
aX6nSMA4BjWSV8sXCN6FFbMPWtcfusU3LmxKGfR48YadTkwt/QPD0VPiBepGhweG
gk0r95OOWUMf1zwJM0ANrzR9x6QCAI+d66C49Nrm8w4j4nXBBE+x4Pcu6G6Es15B
OwuagxrcNnau4QIDAQABo4IBZTCCAWEwDAYDVR0TBAUwAwEB/zALBgNVHQ8EBAMC
AaYwHQYDVR0lBBYwFAYIKwYBBQUHAwEGCCsGAQUFBwMCMBEGCWCGSAGG+EIBAQQE
AwICRDA1BglghkgBhvhCAQ0EKBYmS2F0ZWxsbyBTU0wgVG9vbCBHZW5lcmF0ZWQg
Q2VydGlmaWNhdGUwHQYDVR0OBBYEFFfwPply/0pgiWOFX4unsTNC5BCbMIG7BgNV
HSMEgbMwgbCAFFfwPply/0pgiWOFX4unsTNC5BCboYGMpIGJMIGGMQswCQYDVQQG
EwJVUzEXMBUGA1UECAwOTm9ydGggQ2Fyb2xpbmExEDAOBgNVBAcMB1JhbGVpZ2gx
EDAOBgNVBAoMB0thdGVsbG8xFDASBgNVBAsMC1NvbWVPcmdVbml0MSQwIgYDVQQD
DBtzYXRlbGxpdGUuaG9tZS5uaWNrbmFjaC5uZXSCCQC01mOMAMfyjDANBgkqhkiG
9w0BAQsFAAOCAQEAjkiA3rBNIZGbqsNCycr43QVvqLzSQy3s4JlBIsKZjBjDj243
bveEod2bXX10gtTnW7YRzAEkJvxdmE8mhqY491b17RHIAX/WB1EpBmf79YF93HgV
K2LBzJw2ectdwDrwY1fSuI8vEbF98Ba0yJkFmZWGwbiusU1yKRNwHJGWXJg3sxmL
s//duQ+pU/ew/UsbbcAyRbM8AFjzdmprAlbMv+lPZkONpdagKMffnSBGRVfHzEQy
x/pfxxfX+0Dzj6r41VjrHL0b0wULWxnA17Jvj120vPu4Bf/nCzX04pra882fwDVi
tL0pYRjMmRrMeR2Cvjq47U6bFBojSY3Ux8Ijhg==
-----END CERTIFICATE-----
